target datalayout = "e-m:e-p270:32:32-p271:32:32-p272:64:64-i64:64-i128:128-f80:128-n8:16:32:64-S128"
target triple = "x86_64-pc-linux-gnu"

; Function Attrs: nounwind uwtable
define double @_testfunc_cbk_reg_double(double noundef %0, double noundef %1, double noundef %2, double noundef %3, double noundef %4, ptr noundef %5) #0 {
  %7 = alloca double, align 8
  %8 = alloca double, align 8
  %9 = alloca double, align 8
  %10 = alloca double, align 8
  %11 = alloca double, align 8
  %12 = alloca ptr, align 8
  store double %0, ptr %7, align 8, !tbaa !9
  store double %1, ptr %8, align 8, !tbaa !9
  store double %2, ptr %9, align 8, !tbaa !9
  store double %3, ptr %10, align 8, !tbaa !9
  store double %4, ptr %11, align 8, !tbaa !9
  store ptr %5, ptr %12, align 8, !tbaa !7
  %13 = load ptr, ptr %12, align 8, !tbaa !7
  %14 = load double, ptr %7, align 8, !tbaa !9
  %15 = load double, ptr %7, align 8, !tbaa !9
  %16 = fmul double %14, %15
  %17 = load double, ptr %8, align 8, !tbaa !9
  %18 = load double, ptr %8, align 8, !tbaa !9
  %19 = fmul double %17, %18
  %20 = load double, ptr %9, align 8, !tbaa !9
  %21 = load double, ptr %9, align 8, !tbaa !9
  %22 = fmul double %20, %21
  %23 = load double, ptr %10, align 8, !tbaa !9
  %24 = load double, ptr %10, align 8, !tbaa !9
  %25 = fmul double %23, %24
  %26 = load double, ptr %11, align 8, !tbaa !9
  %27 = load double, ptr %11, align 8, !tbaa !9
  %28 = fmul double %26, %27
  %29 = call double %13(double noundef %16, double noundef %19, double noundef %22, double noundef %25, double noundef %28)
  ret double %29
}