; Function Attrs: nounwind uwtable
define double @_testfunc_cbk_reg_double(double noundef %0, double noundef %1, double noundef %2, double noundef %3, double noundef %4, ptr noundef readonly captures(none) %5) local_unnamed_addr #0 {
  %7 = fmul double %0, %0
  %8 = fmul double %1, %1
  %9 = fmul double %2, %2
  %10 = fmul double %3, %3
  %11 = fmul double %4, %4
  %12 = tail call double %5(double noundef %7, double noundef %8, double noundef %9, double noundef %10, double noundef %11) #34
  ret double %12
}